target datalayout = "e-m:e-p270:32:32-p271:32:32-p272:64:64-i64:64-i128:128-f80:128-n8:16:32:64-S128"
target triple = "x86_64-pc-linux-gnu"

%struct.WOLFSSL = type <{ ptr, ptr, ptr, ptr, [48 x i8], [48 x i8], ptr, ptr, ptr, ptr, ptr, ptr, ptr, ptr, ptr, ptr, ptr, ptr, ptr, i32, [4 x i8], %struct.WOLFSSL_CIPHER, ptr, %struct.Ciphers, %struct.Ciphers, [8 x i8], %struct.Buffers, ptr, ptr, %struct.WOLFSSL_ALERT_HISTORY, %struct.WOLFSSL_ALERT, i32, i32, i32, i32, i32, i32, i32, i16, [2 x i8], i32, i8, %struct.RecordLayerHeader, %struct.MsgsReceived, %struct.ProtocolVersion, %struct.ProtocolVersion, %struct.CipherSpecs, [2 x i8], %struct.Keys, %struct.Options, ptr, i8, i8, i16, [10 x i16], i8, i8, i16, i16, [38 x i8], i32, i32, [4 x i8], ptr, i8, i8, [6 x i8], ptr, ptr, i16, i8, i8, i32, i8, [3 x i8], i32, %struct.OneTimeAuth, ptr }>
%struct.WOLFSSL_CIPHER = type { i8, i8, ptr }
%struct.Ciphers = type { ptr, ptr, ptr, ptr, i8, i8 }
%struct.Buffers = type { %struct.bufferStatic, %struct.bufferStatic, %struct.WOLFSSL_BUFFER_INFO, %struct.WOLFSSL_BUFFER_INFO, %struct.WOLFSSL_BUFFER_INFO, %struct.WOLFSSL_BUFFER_INFO, i32, i32, i8, i8, i8, i8, %struct.WOLFSSL_BUFFER_INFO, %struct.WOLFSSL_BUFFER_INFO, %struct.WOLFSSL_BUFFER_INFO, %struct.WOLFSSL_BUFFER_INFO, ptr, ptr, ptr, i8, i8, i32, i32, ptr, i32, [1 x ptr] }
%struct.bufferStatic = type { [5 x i8], ptr, i32, i32, i32, i8, i8 }
%struct.WOLFSSL_BUFFER_INFO = type { ptr, i32 }
%struct.WOLFSSL_ALERT_HISTORY = type { %struct.WOLFSSL_ALERT, %struct.WOLFSSL_ALERT }
%struct.WOLFSSL_ALERT = type { i32, i32 }
%struct.RecordLayerHeader = type { i8, i8, i8, [2 x i8] }
%struct.MsgsReceived = type { i32 }
%struct.ProtocolVersion = type { i8, i8 }
%struct.CipherSpecs = type { i16, i16, i16, i16, i8, i8, i8, i8, i8, i8, i8, i8 }
%struct.Keys = type { [64 x i8], [64 x i8], [32 x i8], [32 x i8], [16 x i8], [16 x i8], [8 x i8], [12 x i8], [12 x i8], i32, i32, i32, i32, i32, i32, i8, i8, i8, i8 }
%struct.Options = type { i64, i64, i8, i8, i8, i8, i8, i8, i8, i8, i8, i8, i8, i8, i8, i8, i8, i8, i8, i8, i8, i8, i8, i16, i16, i16, i16, i16, i8 }
%struct.OneTimeAuth = type { ptr, i8 }
%struct.Suites = type { i16, i16, [300 x i8], [38 x i8], i8 }

; Function Attrs: nounwind uwtable
define internal i32 @TLSX_SignatureAlgorithms_MapPss(ptr noundef %0, ptr noundef %1, i16 noundef zeroext %2) #0 {
  %4 = alloca i32, align 4
  %5 = alloca ptr, align 8
  %6 = alloca ptr, align 8
  %7 = alloca i16, align 2
  %8 = alloca i16, align 2
  %9 = alloca i32, align 4
  store ptr %0, ptr %5, align 8, !tbaa !3
  store ptr %1, ptr %6, align 8, !tbaa !8
  store i16 %2, ptr %7, align 2, !tbaa !73
  call void @llvm.lifetime.start.p0(i64 2, ptr %8) #8
  %10 = load i16, ptr %7, align 2, !tbaa !73
  %11 = zext i16 %10 to i32
  %12 = and i32 %11, 1
  %13 = icmp eq i32 %12, 1
  br i1 %13, label %14, label %15

14:                                               ; preds = %3
  store i32 -328, ptr %4, align 4
  store i32 1, ptr %9, align 4
  br label %109

15:                                               ; preds = %3
  %16 = load ptr, ptr %5, align 8, !tbaa !3
  %17 = getelementptr inbounds nuw %struct.WOLFSSL, ptr %16, i32 0, i32 57
  store i16 0, ptr %17, align 2, !tbaa !247
  store i16 0, ptr %8, align 2, !tbaa !73
  br label %18

18:                                               ; preds = %103, %15
  %19 = load i16, ptr %8, align 2, !tbaa !73
  %20 = zext i16 %19 to i32
  %21 = load i16, ptr %7, align 2, !tbaa !73
  %22 = zext i16 %21 to i32
  %23 = icmp slt i32 %20, %22
  br i1 %23, label %24, label %108

24:                                               ; preds = %18
  %25 = load ptr, ptr %6, align 8, !tbaa !8
  %26 = load i16, ptr %8, align 2, !tbaa !73
  %27 = zext i16 %26 to i64
  %28 = getelementptr inbounds nuw i8, ptr %25, i64 %27
  %29 = load i8, ptr %28, align 1, !tbaa !55
  %30 = zext i8 %29 to i32
  %31 = icmp eq i32 %30, 8
  br i1 %31, label %32, label %58

32:                                               ; preds = %24
  %33 = load ptr, ptr %6, align 8, !tbaa !8
  %34 = load i16, ptr %8, align 2, !tbaa !73
  %35 = zext i16 %34 to i32
  %36 = add nsw i32 %35, 1
  %37 = sext i32 %36 to i64
  %38 = getelementptr inbounds i8, ptr %33, i64 %37
  %39 = load i8, ptr %38, align 1, !tbaa !55
  %40 = zext i8 %39 to i32
  %41 = icmp sle i32 %40, 6
  br i1 %41, label %42, label %58

42:                                               ; preds = %32
  %43 = load ptr, ptr %6, align 8, !tbaa !8
  %44 = load i16, ptr %8, align 2, !tbaa !73
  %45 = zext i16 %44 to i32
  %46 = add nsw i32 %45, 1
  %47 = sext i32 %46 to i64
  %48 = getelementptr inbounds i8, ptr %43, i64 %47
  %49 = load i8, ptr %48, align 1, !tbaa !55
  %50 = zext i8 %49 to i32
  %51 = shl i32 1, %50
  %52 = load ptr, ptr %5, align 8, !tbaa !3
  %53 = getelementptr inbounds nuw %struct.WOLFSSL, ptr %52, i32 0, i32 57
  %54 = load i16, ptr %53, align 2, !tbaa !247
  %55 = zext i16 %54 to i32
  %56 = or i32 %55, %51
  %57 = trunc i32 %56 to i16
  store i16 %57, ptr %53, align 2, !tbaa !247
  br label %58

58:                                               ; preds = %42, %32, %24
  %59 = load ptr, ptr %6, align 8, !tbaa !8
  %60 = load i16, ptr %8, align 2, !tbaa !73
  %61 = zext i16 %60 to i64
  %62 = getelementptr inbounds nuw i8, ptr %59, i64 %61
  %63 = load i8, ptr %62, align 1, !tbaa !55
  %64 = zext i8 %63 to i32
  %65 = icmp eq i32 %64, 8
  br i1 %65, label %66, label %102

66:                                               ; preds = %58
  %67 = load ptr, ptr %6, align 8, !tbaa !8
  %68 = load i16, ptr %8, align 2, !tbaa !73
  %69 = zext i16 %68 to i32
  %70 = add nsw i32 %69, 1
  %71 = sext i32 %70 to i64
  %72 = getelementptr inbounds i8, ptr %67, i64 %71
  %73 = load i8, ptr %72, align 1, !tbaa !55
  %74 = zext i8 %73 to i32
  %75 = icmp sge i32 %74, 9
  br i1 %75, label %76, label %102

76:                                               ; preds = %66
  %77 = load ptr, ptr %6, align 8, !tbaa !8
  %78 = load i16, ptr %8, align 2, !tbaa !73
  %79 = zext i16 %78 to i32
  %80 = add nsw i32 %79, 1
  %81 = sext i32 %80 to i64
  %82 = getelementptr inbounds i8, ptr %77, i64 %81
  %83 = load i8, ptr %82, align 1, !tbaa !55
  %84 = zext i8 %83 to i32
  %85 = icmp sle i32 %84, 11
  br i1 %85, label %86, label %102

86:                                               ; preds = %76
  %87 = load ptr, ptr %6, align 8, !tbaa !8
  %88 = load i16, ptr %8, align 2, !tbaa !73
  %89 = zext i16 %88 to i32
  %90 = add nsw i32 %89, 1
  %91 = sext i32 %90 to i64
  %92 = getelementptr inbounds i8, ptr %87, i64 %91
  %93 = load i8, ptr %92, align 1, !tbaa !55
  %94 = zext i8 %93 to i32
  %95 = shl i32 1, %94
  %96 = load ptr, ptr %5, align 8, !tbaa !3
  %97 = getelementptr inbounds nuw %struct.WOLFSSL, ptr %96, i32 0, i32 57
  %98 = load i16, ptr %97, align 2, !tbaa !247
  %99 = zext i16 %98 to i32
  %100 = or i32 %99, %95
  %101 = trunc i32 %100 to i16
  store i16 %101, ptr %97, align 2, !tbaa !247
  br label %102

102:                                              ; preds = %86, %76, %66, %58
  br label %103

103:                                              ; preds = %102
  %104 = load i16, ptr %8, align 2, !tbaa !73
  %105 = zext i16 %104 to i32
  %106 = add nsw i32 %105, 2
  %107 = trunc i32 %106 to i16
  store i16 %107, ptr %8, align 2, !tbaa !73
  br label %18, !llvm.loop !248

108:                                              ; preds = %18
  store i32 0, ptr %4, align 4
  store i32 1, ptr %9, align 4
  br label %109

109:                                              ; preds = %108, %14
  call void @llvm.lifetime.end.p0(i64 2, ptr %8) #8
  %110 = load i32, ptr %4, align 4
  ret i32 %110
}

; Function Attrs: inlinehint nounwind uwtable
define internal void @ato16(ptr noundef %0, ptr noundef %1) #5 {
  %3 = alloca ptr, align 8
  %4 = alloca ptr, align 8
  store ptr %0, ptr %3, align 8, !tbaa !8
  store ptr %1, ptr %4, align 8, !tbaa !122
  %5 = load ptr, ptr %3, align 8, !tbaa !8
  %6 = getelementptr inbounds i8, ptr %5, i64 0
  %7 = load i8, ptr %6, align 1, !tbaa !55
  %8 = zext i8 %7 to i32
  %9 = shl i32 %8, 8
  %10 = load ptr, ptr %3, align 8, !tbaa !8
  %11 = getelementptr inbounds i8, ptr %10, i64 1
  %12 = load i8, ptr %11, align 1, !tbaa !55
  %13 = zext i8 %12 to i32
  %14 = or i32 %9, %13
  %15 = trunc i32 %14 to i16
  %16 = load ptr, ptr %4, align 8, !tbaa !122
  store i16 %15, ptr %16, align 2, !tbaa !73
  ret void
}

; Function Attrs: nounwind uwtable
define internal i32 @TLSX_SignatureAlgorithms_Parse(ptr noundef %0, ptr noundef %1, i16 noundef zeroext %2, i8 noundef zeroext %3, ptr noundef %4) #0 {
  %6 = alloca i32, align 4
  %7 = alloca ptr, align 8
  %8 = alloca ptr, align 8
  %9 = alloca i16, align 2
  %10 = alloca i8, align 1
  %11 = alloca ptr, align 8
  %12 = alloca i16, align 2
  %13 = alloca i32, align 4
  store ptr %0, ptr %7, align 8, !tbaa !3
  store ptr %1, ptr %8, align 8, !tbaa !8
  store i16 %2, ptr %9, align 2, !tbaa !73
  store i8 %3, ptr %10, align 1, !tbaa !55
  store ptr %4, ptr %11, align 8, !tbaa !222
  call void @llvm.lifetime.start.p0(i64 2, ptr %12) #8
  %14 = load i8, ptr %10, align 1, !tbaa !55
  %15 = icmp ne i8 %14, 0
  br i1 %15, label %17, label %16

16:                                               ; preds = %5
  store i32 -328, ptr %6, align 4
  store i32 1, ptr %13, align 4
  br label %74

17:                                               ; preds = %5
  %18 = load i16, ptr %9, align 2, !tbaa !73
  %19 = zext i16 %18 to i32
  %20 = icmp slt i32 %19, 4
  br i1 %20, label %26, label %21

21:                                               ; preds = %17
  %22 = load i16, ptr %9, align 2, !tbaa !73
  %23 = zext i16 %22 to i32
  %24 = and i32 %23, 1
  %25 = icmp ne i32 %24, 0
  br i1 %25, label %26, label %27

26:                                               ; preds = %21, %17
  store i32 -328, ptr %6, align 4
  store i32 1, ptr %13, align 4
  br label %74

27:                                               ; preds = %21
  %28 = load ptr, ptr %8, align 8, !tbaa !8
  call void @ato16(ptr noundef %28, ptr noundef %12)
  %29 = load ptr, ptr %8, align 8, !tbaa !8
  %30 = getelementptr inbounds i8, ptr %29, i64 2
  store ptr %30, ptr %8, align 8, !tbaa !8
  %31 = load i16, ptr %9, align 2, !tbaa !73
  %32 = zext i16 %31 to i32
  %33 = load i16, ptr %12, align 2, !tbaa !73
  %34 = zext i16 %33 to i32
  %35 = add nsw i32 2, %34
  %36 = icmp ne i32 %32, %35
  br i1 %36, label %37, label %38

37:                                               ; preds = %27
  store i32 -328, ptr %6, align 4
  store i32 1, ptr %13, align 4
  br label %74

38:                                               ; preds = %27
  %39 = load ptr, ptr %11, align 8, !tbaa !222
  %40 = getelementptr inbounds nuw %struct.Suites, ptr %39, i32 0, i32 1
  %41 = load i16, ptr %40, align 2, !tbaa !216
  %42 = zext i16 %41 to i32
  %43 = srem i32 %42, 2
  %44 = icmp ne i32 %43, 0
  br i1 %44, label %45, label %46

45:                                               ; preds = %38
  store i32 -328, ptr %6, align 4
  store i32 1, ptr %13, align 4
  br label %74

46:                                               ; preds = %38
  %47 = load i16, ptr %12, align 2, !tbaa !73
  %48 = load ptr, ptr %11, align 8, !tbaa !222
  %49 = getelementptr inbounds nuw %struct.Suites, ptr %48, i32 0, i32 1
  store i16 %47, ptr %49, align 2, !tbaa !216
  %50 = load ptr, ptr %11, align 8, !tbaa !222
  %51 = getelementptr inbounds nuw %struct.Suites, ptr %50, i32 0, i32 1
  %52 = load i16, ptr %51, align 2, !tbaa !216
  %53 = zext i16 %52 to i32
  %54 = icmp sgt i32 %53, 38
  br i1 %54, label %55, label %61

55:                                               ; preds = %46
  br label %56

56:                                               ; preds = %55
  br label %57

57:                                               ; preds = %56
  br label %58

58:                                               ; preds = %57
  %59 = load ptr, ptr %11, align 8, !tbaa !222
  %60 = getelementptr inbounds nuw %struct.Suites, ptr %59, i32 0, i32 1
  store i16 38, ptr %60, align 2, !tbaa !216
  br label %61

61:                                               ; preds = %58, %46
  %62 = load ptr, ptr %11, align 8, !tbaa !222
  %63 = getelementptr inbounds nuw %struct.Suites, ptr %62, i32 0, i32 3
  %64 = getelementptr inbounds [38 x i8], ptr %63, i64 0, i64 0
  %65 = load ptr, ptr %8, align 8, !tbaa !8
  %66 = load ptr, ptr %11, align 8, !tbaa !222
  %67 = getelementptr inbounds nuw %struct.Suites, ptr %66, i32 0, i32 1
  %68 = load i16, ptr %67, align 2, !tbaa !216
  %69 = zext i16 %68 to i64
  call void @llvm.memcpy.p0.p0.i64(ptr align 2 %64, ptr align 1 %65, i64 %69, i1 false)
  %70 = load ptr, ptr %7, align 8, !tbaa !3
  %71 = load ptr, ptr %8, align 8, !tbaa !8
  %72 = load i16, ptr %12, align 2, !tbaa !73
  %73 = call i32 @TLSX_SignatureAlgorithms_MapPss(ptr noundef %70, ptr noundef %71, i16 noundef zeroext %72)
  store i32 %73, ptr %6, align 4
  store i32 1, ptr %13, align 4
  br label %74

74:                                               ; preds = %61, %45, %37, %26, %16
  call void @llvm.lifetime.end.p0(i64 2, ptr %12) #8
  %75 = load i32, ptr %6, align 4
  ret i32 %75
}