; Function Attrs: nofree norecurse nosync nounwind memory(argmem: readwrite) uwtable
define internal fastcc range(i32 -328, 1) i32 @TLSX_SignatureAlgorithms_Parse(ptr noundef nonnull writeonly captures(none) %0, ptr noundef nonnull readonly captures(none) %1, i16 noundef zeroext %2, i8 noundef zeroext range(i8 0, 2) %3, ptr noundef captures(none) %4) unnamed_addr #11 {
  %.not = icmp eq i8 %3, 0
  br i1 %.not, label %TLSX_SignatureAlgorithms_MapPss.exit, label %6

6:                                                ; preds = %5
  %7 = zext i16 %2 to i32
  %8 = icmp ugt i16 %2, 3
  %9 = and i32 %7, 1
  %.not16 = icmp eq i32 %9, 0
  %or.cond = and i1 %8, %.not16
  br i1 %or.cond, label %10, label %TLSX_SignatureAlgorithms_MapPss.exit

10:                                               ; preds = %6
  %.val = load i8, ptr %1, align 1, !tbaa !51
  %11 = getelementptr i8, ptr %1, i64 1
  %.val19 = load i8, ptr %11, align 1, !tbaa !51
  %12 = zext i8 %.val to i16
  %13 = shl nuw i16 %12, 8
  %14 = zext i8 %.val19 to i16
  %15 = or disjoint i16 %13, %14
  %16 = getelementptr inbounds nuw i8, ptr %1, i64 2
  %17 = zext i16 %15 to i32
  %18 = add nuw nsw i32 %17, 2
  %.not17 = icmp eq i32 %18, %7
  br i1 %.not17, label %19, label %TLSX_SignatureAlgorithms_MapPss.exit

19:                                               ; preds = %10
  %20 = getelementptr inbounds nuw i8, ptr %4, i64 2
  %21 = load i16, ptr %20, align 2, !tbaa !187
  %22 = and i16 %21, 1
  %.not18 = icmp eq i16 %22, 0
  br i1 %.not18, label %23, label %TLSX_SignatureAlgorithms_MapPss.exit

23:                                               ; preds = %19
  %spec.select = tail call i16 @llvm.umin.i16(i16 %15, i16 38)
  store i16 %spec.select, ptr %20, align 2, !tbaa !187
  %24 = getelementptr inbounds nuw i8, ptr %4, i64 304
  %25 = zext nneg i16 %spec.select to i64
  tail call void @llvm.memcpy.p0.p0.i64(ptr nonnull align 2 %24, ptr nonnull align 1 %16, i64 %25, i1 false)
  %26 = and i16 %14, 1
  %.not.i = icmp eq i16 %26, 0
  br i1 %.not.i, label %.lr.ph.preheader.i, label %TLSX_SignatureAlgorithms_MapPss.exit

.lr.ph.preheader.i:                               ; preds = %23
  %27 = getelementptr inbounds nuw i8, ptr %0, i64 1106
  store i16 0, ptr %27, align 2, !tbaa !198
  %28 = zext i16 %15 to i64
  br label %.lr.ph.i

.lr.ph.i:                                         ; preds = %.thread.i, %.lr.ph.preheader.i
  %29 = phi i16 [ 0, %.lr.ph.preheader.i ], [ %51, %.thread.i ]
  %indvars.iv.i = phi i64 [ 0, %.lr.ph.preheader.i ], [ %indvars.iv.next.i, %.thread.i ]
  %30 = getelementptr inbounds nuw i8, ptr %16, i64 %indvars.iv.i
  %31 = load i8, ptr %30, align 1, !tbaa !51
  %32 = icmp eq i8 %31, 8
  br i1 %32, label %33, label %.thread.i

33:                                               ; preds = %.lr.ph.i
  %34 = getelementptr inbounds nuw i8, ptr %30, i64 1
  %35 = load i8, ptr %34, align 1, !tbaa !51
  %36 = icmp ult i8 %35, 7
  br i1 %36, label %37, label %.thread29.i

37:                                               ; preds = %33
  %38 = zext nneg i8 %35 to i32
  %39 = shl nuw nsw i32 1, %38
  %40 = trunc nuw i32 %39 to i16
  %41 = or i16 %29, %40
  store i16 %41, ptr %27, align 2, !tbaa !198
  %.pr.pre.i = load i8, ptr %30, align 1, !tbaa !51
  %42 = icmp eq i8 %.pr.pre.i, 8
  br i1 %42, label %..thread29.i_crit_edge, label %.thread.i

..thread29.i_crit_edge:                           ; preds = %37
  %.pre = load i8, ptr %34, align 1, !tbaa !51
  br label %.thread29.i

.thread29.i:                                      ; preds = %..thread29.i_crit_edge, %33
  %43 = phi i8 [ %.pre, %..thread29.i_crit_edge ], [ %35, %33 ]
  %44 = phi i16 [ %41, %..thread29.i_crit_edge ], [ %29, %33 ]
  %45 = add i8 %43, -9
  %or.cond.i = icmp ult i8 %45, 3
  br i1 %or.cond.i, label %46, label %.thread.i

46:                                               ; preds = %.thread29.i
  %47 = zext nneg i8 %43 to i32
  %48 = shl nuw nsw i32 1, %47
  %49 = trunc nuw i32 %48 to i16
  %50 = or i16 %44, %49
  store i16 %50, ptr %27, align 2, !tbaa !198
  br label %.thread.i

.thread.i:                                        ; preds = %46, %.thread29.i, %37, %.lr.ph.i
  %51 = phi i16 [ %29, %.lr.ph.i ], [ %41, %37 ], [ %44, %.thread29.i ], [ %50, %46 ]
  %indvars.iv.next.i = add nuw nsw i64 %indvars.iv.i, 2
  %52 = icmp samesign ult i64 %indvars.iv.next.i, %28
  br i1 %52, label %.lr.ph.i, label %TLSX_SignatureAlgorithms_MapPss.exit, !llvm.loop !199

TLSX_SignatureAlgorithms_MapPss.exit:             ; preds = %.thread.i, %23, %19, %10, %6, %5
  %.0 = phi i32 [ -328, %5 ], [ -328, %6 ], [ -328, %10 ], [ -328, %19 ], [ -328, %23 ], [ 0, %.thread.i ]
  ret i32 %.0
}